target datalayout = "e-m:e-p270:32:32-p271:32:32-p272:64:64-i64:64-i128:128-f80:128-n8:16:32:64-S128"
target triple = "x86_64-pc-linux-gnu"

%struct.st_table = type { i8, i8, i8, i32, ptr, i64, ptr, i64, i64, ptr }

; Function Attrs: nounwind sspstrong uwtable
define dso_local i64 @rb_const_list(ptr noundef %0) #0 {
  %2 = alloca i64, align 8
  %3 = alloca ptr, align 8
  %4 = alloca ptr, align 8
  %5 = alloca i64, align 8
  %6 = alloca i32, align 4
  store ptr %0, ptr %3, align 8, !tbaa !40
  call void @llvm.lifetime.start.p0(i64 8, ptr %4) #30
  %7 = load ptr, ptr %3, align 8, !tbaa !40
  store ptr %7, ptr %4, align 8, !tbaa !12
  call void @llvm.lifetime.start.p0(i64 8, ptr %5) #30
  %8 = load ptr, ptr %4, align 8, !tbaa !12
  %9 = icmp ne ptr %8, null
  br i1 %9, label %12, label %10

10:                                               ; preds = %1
  %11 = call i64 @rb_ary_new_capa(i64 noundef 0)
  store i64 %11, ptr %2, align 8
  store i32 1, ptr %6, align 4
  br label %21

12:                                               ; preds = %1
  %13 = load ptr, ptr %4, align 8, !tbaa !12
  %14 = getelementptr inbounds nuw %struct.st_table, ptr %13, i32 0, i32 5
  %15 = load i64, ptr %14, align 8, !tbaa !192
  %16 = call i64 @rb_ary_new_capa(i64 noundef %15)
  store i64 %16, ptr %5, align 8, !tbaa !14
  %17 = load ptr, ptr %4, align 8, !tbaa !12
  %18 = load i64, ptr %5, align 8, !tbaa !14
  call void @rb_st_foreach_safe(ptr noundef %17, ptr noundef @list_i, i64 noundef %18)
  %19 = load ptr, ptr %4, align 8, !tbaa !12
  call void @rb_st_free_table(ptr noundef %19)
  %20 = load i64, ptr %5, align 8, !tbaa !14
  store i64 %20, ptr %2, align 8
  store i32 1, ptr %6, align 4
  br label %21

21:                                               ; preds = %12, %10
  call void @llvm.lifetime.end.p0(i64 8, ptr %5) #30
  call void @llvm.lifetime.end.p0(i64 8, ptr %4) #30
  %22 = load i64, ptr %2, align 8
  ret i64 %22
}