; Function Attrs: nounwind sspstrong uwtable
define dso_local i64 @rb_const_list(ptr noundef %0) local_unnamed_addr #0 {
  %.not = icmp eq ptr %0, null
  br i1 %.not, label %2, label %4

2:                                                ; preds = %1
  %3 = tail call i64 @rb_ary_new_capa(i64 noundef 0) #27
  br label %8

4:                                                ; preds = %1
  %5 = getelementptr inbounds nuw i8, ptr %0, i64 16
  %6 = load i64, ptr %5, align 8, !tbaa !199
  %7 = tail call i64 @rb_ary_new_capa(i64 noundef %6) #27
  tail call void @rb_st_foreach_safe(ptr noundef nonnull %0, ptr noundef nonnull @list_i, i64 noundef %7) #27
  tail call void @rb_st_free_table(ptr noundef nonnull %0) #27
  br label %8

8:                                                ; preds = %4, %2
  %.0 = phi i64 [ %7, %4 ], [ %3, %2 ]
  ret i64 %.0
}